
bootloader:     file format elf32-sisa

Disassembly of section .text:

00000000 <__entry_point>:
   0:	5e00 	movi	r7, 0
   2:	5ff8 	movhi	r7, -8
   4:	58a2 	movi	r4, -94
   6:	5900 	movhi	r4, 0
   8:	5000 	movi	r0, 0
   a:	2ffe 	addi	r7, r7, -2
   c:	41c0 	st	0(r7), r0
   e:	2ffe 	addi	r7, r7, -2
  10:	41c0 	st	0(r7), r0
  12:	2ffe 	addi	r7, r7, -2
  14:	41c0 	st	0(r7), r0
  16:	2ffe 	addi	r7, r7, -2
  18:	41c0 	st	0(r7), r0
  1a:	5a00 	movi	r5, 0
  1c:	567f 	movi	r3, 127
  1e:	5745 	movhi	r3, 69
  20:	2340 	addi	r1, r5, 0
  22:	ad04 	jal	r6, r4
  24:	14d9 	cmpeq	r2, r3, r1
  26:	2342 	addi	r1, r5, 2
  28:	ad04 	jal	r6, r4
  2a:	564c 	movi	r3, 76
  2c:	5746 	movhi	r3, 70
  2e:	12d9 	cmpeq	r1, r3, r1
  30:	0242 	and	r1, r1, r2
  32:	6301 	bnz	r1, 4
  34:	ffff 	halt	

00000036 <__magicnumber_ok>:
  36:	5220 	movi	r1, 32
  38:	ad04 	jal	r6, r4
  3a:	43c3 	st	6(r7), r1
  3c:	5230 	movi	r1, 48
  3e:	ad04 	jal	r6, r4
  40:	43c2 	st	4(r7), r1
  42:	3bc3 	ld	r5, 6(r7)
  44:	5428 	movi	r2, 40
  46:	8281 	mul	r1, r2, r1
  48:	0761 	add	r3, r5, r1
  4a:	47c1 	st	2(r7), r3

0000004c <__begin_for_headers>:
  4c:	37c1 	ld	r3, 2(r7)
  4e:	1363 	cmpltu	r1, r5, r3
  50:	621c 	bz	r1, 58
  52:	2348 	addi	r1, r5, 8
  54:	ad04 	jal	r6, r4
  56:	5402 	movi	r2, 2
  58:	0242 	and	r1, r1, r2
  5a:	6213 	bz	r1, 40
  5c:	234c 	addi	r1, r5, 12
  5e:	ad04 	jal	r6, r4
  60:	2640 	addi	r3, r1, 0
  62:	2350 	addi	r1, r5, 16
  64:	ad04 	jal	r6, r4
  66:	2440 	addi	r2, r1, 0
  68:	4bc0 	st	0(r7), r5
  6a:	2354 	addi	r1, r5, 20
  6c:	ad04 	jal	r6, r4
  6e:	2a40 	addi	r5, r1, 0
  70:	0b62 	add	r5, r5, r2

00000072 <__begin_for_copy>:
  72:	10a5 	cmpltu	r0, r2, r5
  74:	6006 	bz	r0, 14
  76:	2280 	addi	r1, r2, 0
  78:	ad04 	jal	r6, r4
  7a:	42c0 	st	0(r3), r1
  7c:	2482 	addi	r2, r2, 2
  7e:	26c2 	addi	r3, r3, 2
  80:	65f8 	bnz	r2, -14	<__begin_for_copy>

00000082 <__end_for_copy>:
  82:	3bc0 	ld	r5, 0(r7)
  84:	5228 	movi	r1, 40
  86:	0b61 	add	r5, r5, r1
  88:	6be1 	bnz	r5, -60

0000008a <__end_for_headers>:
  8a:	5200 	movi	r1, 0
  8c:	53c0 	movhi	r1, -64
  8e:	0010 	xor	r0, r0, r0
  90:	0251 	xor	r1, r1, r1
  92:	0492 	xor	r2, r2, r2
  94:	06d3 	xor	r3, r3, r3
  96:	0914 	xor	r4, r4, r4
  98:	0b55 	xor	r5, r5, r5
  9a:	0d96 	xor	r6, r6, r6
  9c:	0fd7 	xor	r7, r7, r7
  9e:	5dc0 	movhi	r6, -64
  a0:	a183 	jmp	r6

000000a2 <read_sd>:
  a2:	2ffe 	addi	r7, r7, -2
  a4:	41c0 	st	0(r7), r0
  a6:	2ffe 	addi	r7, r7, -2
  a8:	43c0 	st	0(r7), r1
  aa:	2ffe 	addi	r7, r7, -2
  ac:	45c0 	st	0(r7), r2
  ae:	2ffe 	addi	r7, r7, -2
  b0:	47c0 	st	0(r7), r3
  b2:	2ffe 	addi	r7, r7, -2
  b4:	49c0 	st	0(r7), r4
  b6:	2ffe 	addi	r7, r7, -2
  b8:	4bc0 	st	0(r7), r5
  ba:	2ffe 	addi	r7, r7, -2
  bc:	4dc0 	st	0(r7), r6
  be:	5001 	movi	r0, 1
  c0:	7316 	out	22, r1
  c2:	7118 	out	24, r0
  c4:	0010 	xor	r0, r0, r0

000000c6 <__polling_while>:
  c6:	7019 	in	r0, 25
  c8:	60fe 	bz	r0, -2	<__polling_while>
  ca:	7417 	in	r2, 23
  cc:	45c5 	st	10(r7), r2
  ce:	3dc0 	ld	r6, 0(r7)
  d0:	2fc2 	addi	r7, r7, 2
  d2:	3bc0 	ld	r5, 0(r7)
  d4:	2fc2 	addi	r7, r7, 2
  d6:	39c0 	ld	r4, 0(r7)
  d8:	2fc2 	addi	r7, r7, 2
  da:	37c0 	ld	r3, 0(r7)
  dc:	2fc2 	addi	r7, r7, 2
  de:	35c0 	ld	r2, 0(r7)
  e0:	2fc2 	addi	r7, r7, 2
  e2:	33c0 	ld	r1, 0(r7)
  e4:	2fc2 	addi	r7, r7, 2
  e6:	31c0 	ld	r0, 0(r7)
  e8:	2fc2 	addi	r7, r7, 2
  ea:	a183 	jmp	r6
